target datalayout = "e-m:e-p270:32:32-p271:32:32-p272:64:64-i64:64-i128:128-f80:128-n8:16:32:64-S128"
target triple = "x86_64-pc-linux-gnu"

%struct.List = type { i32, i32, i32, ptr, [0 x %union.ListCell] }
%union.ListCell = type { ptr }
%struct.PredIterInfoData = type { ptr, ptr, ptr, ptr, ptr }
%struct.ScalarArrayOpExpr = type { %struct.Expr, i32, i32, i32, i32, i8, i32, ptr, i32 }
%struct.Expr = type { i32 }
%struct.Const = type { %struct.Expr, i32, i32, i32, i32, i64, i8, i8, i32 }
%struct.ArrayType = type { i32, i32, i32, i32 }
%struct.OpExpr = type { %struct.Expr, i32, i32, i32, i8, i32, i32, ptr, i32 }
%struct.ArrayConstIterState = type { %struct.OpExpr, %struct.Const, i32, i32, ptr, ptr }

; Function Attrs: inlinehint nounwind uwtable
define internal ptr @DatumGetPointer(i64 noundef %0) #2 {
  %2 = alloca i64, align 8
  store i64 %0, ptr %2, align 8
  %3 = load i64, ptr %2, align 8
  %4 = inttoptr i64 %3 to ptr
  ret ptr %4
}

; Function Attrs: inlinehint nounwind uwtable
define internal ptr @list_nth_cell(ptr noundef %0, i32 noundef %1) #2 {
  %3 = alloca ptr, align 8
  %4 = alloca i32, align 4
  store ptr %0, ptr %3, align 8
  store i32 %1, ptr %4, align 4
  %5 = load ptr, ptr %3, align 8
  %6 = getelementptr inbounds nuw %struct.List, ptr %5, i32 0, i32 3
  %7 = load ptr, ptr %6, align 8
  %8 = load i32, ptr %4, align 4
  %9 = sext i32 %8 to i64
  %10 = getelementptr inbounds %union.ListCell, ptr %7, i64 %9
  ret ptr %10
}

; Function Attrs: nounwind uwtable
define internal void @arrayconst_startup_fn(ptr noundef %0, ptr noundef %1) #0 {
  %3 = alloca ptr, align 8
  %4 = alloca ptr, align 8
  %5 = alloca ptr, align 8
  %6 = alloca ptr, align 8
  %7 = alloca ptr, align 8
  %8 = alloca ptr, align 8
  %9 = alloca i16, align 2
  %10 = alloca i8, align 1
  %11 = alloca i8, align 1
  store ptr %0, ptr %3, align 8
  store ptr %1, ptr %4, align 8
  call void @llvm.lifetime.start.p0(i64 8, ptr %5) #7
  %12 = load ptr, ptr %3, align 8
  store ptr %12, ptr %5, align 8
  call void @llvm.lifetime.start.p0(i64 8, ptr %6) #7
  call void @llvm.lifetime.start.p0(i64 8, ptr %7) #7
  call void @llvm.lifetime.start.p0(i64 8, ptr %8) #7
  call void @llvm.lifetime.start.p0(i64 2, ptr %9) #7
  call void @llvm.lifetime.start.p0(i64 1, ptr %10) #7
  call void @llvm.lifetime.start.p0(i64 1, ptr %11) #7
  %13 = call ptr @palloc(i64 noundef 112)
  store ptr %13, ptr %6, align 8
  %14 = load ptr, ptr %6, align 8
  %15 = load ptr, ptr %4, align 8
  %16 = getelementptr inbounds nuw %struct.PredIterInfoData, ptr %15, i32 0, i32 0
  store ptr %14, ptr %16, align 8
  %17 = load ptr, ptr %5, align 8
  %18 = getelementptr inbounds nuw %struct.ScalarArrayOpExpr, ptr %17, i32 0, i32 7
  %19 = load ptr, ptr %18, align 8
  %20 = call ptr @list_nth_cell(ptr noundef %19, i32 noundef 1)
  %21 = load ptr, ptr %20, align 8
  store ptr %21, ptr %7, align 8
  %22 = load ptr, ptr %7, align 8
  %23 = getelementptr inbounds nuw %struct.Const, ptr %22, i32 0, i32 5
  %24 = load i64, ptr %23, align 8
  %25 = call ptr @DatumGetPointer(i64 noundef %24)
  %26 = call ptr @pg_detoast_datum(ptr noundef %25)
  store ptr %26, ptr %8, align 8
  %27 = load ptr, ptr %8, align 8
  %28 = getelementptr inbounds nuw %struct.ArrayType, ptr %27, i32 0, i32 3
  %29 = load i32, ptr %28, align 4
  call void @get_typlenbyvalalign(i32 noundef %29, ptr noundef %9, ptr noundef %10, ptr noundef %11)
  %30 = load ptr, ptr %8, align 8
  %31 = load ptr, ptr %8, align 8
  %32 = getelementptr inbounds nuw %struct.ArrayType, ptr %31, i32 0, i32 3
  %33 = load i32, ptr %32, align 4
  %34 = load i16, ptr %9, align 2
  %35 = sext i16 %34 to i32
  %36 = load i8, ptr %10, align 1, !range !4, !noundef !5
  %37 = trunc i8 %36 to i1
  %38 = load i8, ptr %11, align 1
  %39 = load ptr, ptr %6, align 8
  %40 = getelementptr inbounds nuw %struct.ArrayConstIterState, ptr %39, i32 0, i32 4
  %41 = load ptr, ptr %6, align 8
  %42 = getelementptr inbounds nuw %struct.ArrayConstIterState, ptr %41, i32 0, i32 5
  %43 = load ptr, ptr %6, align 8
  %44 = getelementptr inbounds nuw %struct.ArrayConstIterState, ptr %43, i32 0, i32 3
  call void @deconstruct_array(ptr noundef %30, i32 noundef %33, i32 noundef %35, i1 noundef zeroext %37, i8 noundef signext %38, ptr noundef %40, ptr noundef %42, ptr noundef %44)
  %45 = load ptr, ptr %6, align 8
  %46 = getelementptr inbounds nuw %struct.ArrayConstIterState, ptr %45, i32 0, i32 0
  %47 = getelementptr inbounds nuw %struct.OpExpr, ptr %46, i32 0, i32 0
  %48 = getelementptr inbounds nuw %struct.Expr, ptr %47, i32 0, i32 0
  store i32 17, ptr %48, align 8
  %49 = load ptr, ptr %5, align 8
  %50 = getelementptr inbounds nuw %struct.ScalarArrayOpExpr, ptr %49, i32 0, i32 1
  %51 = load i32, ptr %50, align 4
  %52 = load ptr, ptr %6, align 8
  %53 = getelementptr inbounds nuw %struct.ArrayConstIterState, ptr %52, i32 0, i32 0
  %54 = getelementptr inbounds nuw %struct.OpExpr, ptr %53, i32 0, i32 1
  store i32 %51, ptr %54, align 4
  %55 = load ptr, ptr %5, align 8
  %56 = getelementptr inbounds nuw %struct.ScalarArrayOpExpr, ptr %55, i32 0, i32 2
  %57 = load i32, ptr %56, align 8
  %58 = load ptr, ptr %6, align 8
  %59 = getelementptr inbounds nuw %struct.ArrayConstIterState, ptr %58, i32 0, i32 0
  %60 = getelementptr inbounds nuw %struct.OpExpr, ptr %59, i32 0, i32 2
  store i32 %57, ptr %60, align 8
  %61 = load ptr, ptr %6, align 8
  %62 = getelementptr inbounds nuw %struct.ArrayConstIterState, ptr %61, i32 0, i32 0
  %63 = getelementptr inbounds nuw %struct.OpExpr, ptr %62, i32 0, i32 3
  store i32 16, ptr %63, align 4
  %64 = load ptr, ptr %6, align 8
  %65 = getelementptr inbounds nuw %struct.ArrayConstIterState, ptr %64, i32 0, i32 0
  %66 = getelementptr inbounds nuw %struct.OpExpr, ptr %65, i32 0, i32 4
  store i8 0, ptr %66, align 8
  %67 = load ptr, ptr %6, align 8
  %68 = getelementptr inbounds nuw %struct.ArrayConstIterState, ptr %67, i32 0, i32 0
  %69 = getelementptr inbounds nuw %struct.OpExpr, ptr %68, i32 0, i32 5
  store i32 0, ptr %69, align 4
  %70 = load ptr, ptr %5, align 8
  %71 = getelementptr inbounds nuw %struct.ScalarArrayOpExpr, ptr %70, i32 0, i32 6
  %72 = load i32, ptr %71, align 8
  %73 = load ptr, ptr %6, align 8
  %74 = getelementptr inbounds nuw %struct.ArrayConstIterState, ptr %73, i32 0, i32 0
  %75 = getelementptr inbounds nuw %struct.OpExpr, ptr %74, i32 0, i32 6
  store i32 %72, ptr %75, align 8
  %76 = load ptr, ptr %5, align 8
  %77 = getelementptr inbounds nuw %struct.ScalarArrayOpExpr, ptr %76, i32 0, i32 7
  %78 = load ptr, ptr %77, align 8
  %79 = call ptr @list_copy(ptr noundef %78)
  %80 = load ptr, ptr %6, align 8
  %81 = getelementptr inbounds nuw %struct.ArrayConstIterState, ptr %80, i32 0, i32 0
  %82 = getelementptr inbounds nuw %struct.OpExpr, ptr %81, i32 0, i32 7
  store ptr %79, ptr %82, align 8
  %83 = load ptr, ptr %6, align 8
  %84 = getelementptr inbounds nuw %struct.ArrayConstIterState, ptr %83, i32 0, i32 1
  %85 = getelementptr inbounds nuw %struct.Const, ptr %84, i32 0, i32 0
  %86 = getelementptr inbounds nuw %struct.Expr, ptr %85, i32 0, i32 0
  store i32 7, ptr %86, align 8
  %87 = load ptr, ptr %8, align 8
  %88 = getelementptr inbounds nuw %struct.ArrayType, ptr %87, i32 0, i32 3
  %89 = load i32, ptr %88, align 4
  %90 = load ptr, ptr %6, align 8
  %91 = getelementptr inbounds nuw %struct.ArrayConstIterState, ptr %90, i32 0, i32 1
  %92 = getelementptr inbounds nuw %struct.Const, ptr %91, i32 0, i32 1
  store i32 %89, ptr %92, align 4
  %93 = load ptr, ptr %6, align 8
  %94 = getelementptr inbounds nuw %struct.ArrayConstIterState, ptr %93, i32 0, i32 1
  %95 = getelementptr inbounds nuw %struct.Const, ptr %94, i32 0, i32 2
  store i32 -1, ptr %95, align 8
  %96 = load ptr, ptr %7, align 8
  %97 = getelementptr inbounds nuw %struct.Const, ptr %96, i32 0, i32 3
  %98 = load i32, ptr %97, align 4
  %99 = load ptr, ptr %6, align 8
  %100 = getelementptr inbounds nuw %struct.ArrayConstIterState, ptr %99, i32 0, i32 1
  %101 = getelementptr inbounds nuw %struct.Const, ptr %100, i32 0, i32 3
  store i32 %98, ptr %101, align 4
  %102 = load i16, ptr %9, align 2
  %103 = sext i16 %102 to i32
  %104 = load ptr, ptr %6, align 8
  %105 = getelementptr inbounds nuw %struct.ArrayConstIterState, ptr %104, i32 0, i32 1
  %106 = getelementptr inbounds nuw %struct.Const, ptr %105, i32 0, i32 4
  store i32 %103, ptr %106, align 8
  %107 = load i8, ptr %10, align 1, !range !4, !noundef !5
  %108 = trunc i8 %107 to i1
  %109 = load ptr, ptr %6, align 8
  %110 = getelementptr inbounds nuw %struct.ArrayConstIterState, ptr %109, i32 0, i32 1
  %111 = getelementptr inbounds nuw %struct.Const, ptr %110, i32 0, i32 7
  %112 = zext i1 %108 to i8
  store i8 %112, ptr %111, align 1
  %113 = load ptr, ptr %6, align 8
  %114 = getelementptr inbounds nuw %struct.ArrayConstIterState, ptr %113, i32 0, i32 1
  %115 = load ptr, ptr %6, align 8
  %116 = getelementptr inbounds nuw %struct.ArrayConstIterState, ptr %115, i32 0, i32 0
  %117 = getelementptr inbounds nuw %struct.OpExpr, ptr %116, i32 0, i32 7
  %118 = load ptr, ptr %117, align 8
  %119 = call ptr @list_nth_cell(ptr noundef %118, i32 noundef 1)
  store ptr %114, ptr %119, align 8
  %120 = load ptr, ptr %6, align 8
  %121 = getelementptr inbounds nuw %struct.ArrayConstIterState, ptr %120, i32 0, i32 2
  store i32 0, ptr %121, align 8
  call void @llvm.lifetime.end.p0(i64 1, ptr %11) #7
  call void @llvm.lifetime.end.p0(i64 1, ptr %10) #7
  call void @llvm.lifetime.end.p0(i64 2, ptr %9) #7
  call void @llvm.lifetime.end.p0(i64 8, ptr %8) #7
  call void @llvm.lifetime.end.p0(i64 8, ptr %7) #7
  call void @llvm.lifetime.end.p0(i64 8, ptr %6) #7
  call void @llvm.lifetime.end.p0(i64 8, ptr %5) #7
  ret void
}