; Function Attrs: nounwind uwtable
define internal void @arrayconst_startup_fn(ptr noundef readonly captures(none) %0, ptr noundef writeonly captures(none) initializes((0, 8)) %1) #0 {
  %3 = alloca i16, align 2
  %4 = alloca i8, align 1
  %5 = alloca i8, align 1
  call void @llvm.lifetime.start.p0(i64 2, ptr nonnull %3) #7
  call void @llvm.lifetime.start.p0(i64 1, ptr nonnull %4) #7
  call void @llvm.lifetime.start.p0(i64 1, ptr nonnull %5) #7
  %6 = tail call ptr @palloc(i64 noundef 112) #7
  store ptr %6, ptr %1, align 8
  %7 = getelementptr inbounds nuw i8, ptr %0, i64 32
  %8 = load ptr, ptr %7, align 8
  %9 = getelementptr i8, ptr %8, i64 16
  %.val34 = load ptr, ptr %9, align 8
  %10 = getelementptr inbounds nuw i8, ptr %.val34, i64 8
  %11 = load ptr, ptr %10, align 8
  %12 = getelementptr inbounds nuw i8, ptr %11, i64 24
  %13 = load i64, ptr %12, align 8
  %14 = inttoptr i64 %13 to ptr
  %15 = tail call ptr @pg_detoast_datum(ptr noundef %14) #7
  %16 = getelementptr inbounds nuw i8, ptr %15, i64 12
  %17 = load i32, ptr %16, align 4
  call void @get_typlenbyvalalign(i32 noundef %17, ptr noundef nonnull %3, ptr noundef nonnull %4, ptr noundef nonnull %5) #7
  %18 = load i32, ptr %16, align 4
  %19 = load i16, ptr %3, align 2
  %20 = sext i16 %19 to i32
  %21 = load i8, ptr %4, align 1, !range !14, !noundef !15
  %22 = trunc nuw i8 %21 to i1
  %23 = load i8, ptr %5, align 1
  %24 = getelementptr inbounds nuw i8, ptr %6, i64 96
  %25 = getelementptr inbounds nuw i8, ptr %6, i64 104
  %26 = getelementptr inbounds nuw i8, ptr %6, i64 92
  call void @deconstruct_array(ptr noundef %15, i32 noundef %18, i32 noundef %20, i1 noundef zeroext %22, i8 noundef signext %23, ptr noundef nonnull %24, ptr noundef nonnull %25, ptr noundef nonnull %26) #7
  store i32 17, ptr %6, align 8
  %27 = getelementptr inbounds nuw i8, ptr %0, i64 4
  %28 = load i32, ptr %27, align 4
  %29 = getelementptr inbounds nuw i8, ptr %6, i64 4
  store i32 %28, ptr %29, align 4
  %30 = getelementptr inbounds nuw i8, ptr %0, i64 8
  %31 = load i32, ptr %30, align 8
  %32 = getelementptr inbounds nuw i8, ptr %6, i64 8
  store i32 %31, ptr %32, align 8
  %33 = getelementptr inbounds nuw i8, ptr %6, i64 12
  store i32 16, ptr %33, align 4
  %34 = getelementptr inbounds nuw i8, ptr %6, i64 16
  store i8 0, ptr %34, align 8
  %35 = getelementptr inbounds nuw i8, ptr %6, i64 20
  store i32 0, ptr %35, align 4
  %36 = getelementptr inbounds nuw i8, ptr %0, i64 24
  %37 = load i32, ptr %36, align 8
  %38 = getelementptr inbounds nuw i8, ptr %6, i64 24
  store i32 %37, ptr %38, align 8
  %39 = load ptr, ptr %7, align 8
  %40 = call ptr @list_copy(ptr noundef %39) #7
  %41 = getelementptr inbounds nuw i8, ptr %6, i64 32
  store ptr %40, ptr %41, align 8
  %42 = getelementptr inbounds nuw i8, ptr %6, i64 48
  store i32 7, ptr %42, align 8
  %43 = load i32, ptr %16, align 4
  %44 = getelementptr inbounds nuw i8, ptr %6, i64 52
  store i32 %43, ptr %44, align 4
  %45 = getelementptr inbounds nuw i8, ptr %6, i64 56
  store i32 -1, ptr %45, align 8
  %46 = getelementptr inbounds nuw i8, ptr %11, i64 12
  %47 = load i32, ptr %46, align 4
  %48 = getelementptr inbounds nuw i8, ptr %6, i64 60
  store i32 %47, ptr %48, align 4
  %49 = load i16, ptr %3, align 2
  %50 = sext i16 %49 to i32
  %51 = getelementptr inbounds nuw i8, ptr %6, i64 64
  store i32 %50, ptr %51, align 8
  %52 = load i8, ptr %4, align 1, !range !14, !noundef !15
  %53 = getelementptr inbounds nuw i8, ptr %6, i64 81
  store i8 %52, ptr %53, align 1
  %54 = getelementptr i8, ptr %40, i64 16
  %.val = load ptr, ptr %54, align 8
  %55 = getelementptr inbounds nuw i8, ptr %.val, i64 8
  store ptr %42, ptr %55, align 8
  %56 = getelementptr inbounds nuw i8, ptr %6, i64 88
  store i32 0, ptr %56, align 8
  call void @llvm.lifetime.end.p0(i64 1, ptr nonnull %5) #7
  call void @llvm.lifetime.end.p0(i64 1, ptr nonnull %4) #7
  call void @llvm.lifetime.end.p0(i64 2, ptr nonnull %3) #7
  ret void
}